target datalayout = "e-m:e-p270:32:32-p271:32:32-p272:64:64-i64:64-i128:128-f80:128-n8:16:32:64-S128"
target triple = "x86_64-pc-linux-gnu"

%struct.rlc_lte_stat_t = type { ptr, i32, %struct.rlc_lte_common_stats }
%struct.rlc_lte_common_stats = type { i32, i32, i32, i32 }
%struct.nstime_t = type { i64, i32 }
%struct.rlc_lte_ep = type { ptr, %struct.rlc_lte_row_data }
%struct.rlc_lte_row_data = type { i8, i16, i8, i32, i32, %struct.nstime_t, %struct.nstime_t, i32, i32, i32, i32, i32, %struct.nstime_t, %struct.nstime_t, i32, i32, i32 }

@.str.4 = private unnamed_addr constant [14 x i8] c"Common Data:\0A\00", align 1
@.str.5 = private unnamed_addr constant [16 x i8] c"==============\0A\00", align 1
@.str.6 = private unnamed_addr constant [70 x i8] c"BCCH Frames: %u   BCCH Bytes: %u   PCCH Frames: %u   PCCH Bytes: %u\0A\0A\00", align 1
@.str.7 = private unnamed_addr constant [34 x i8] c"Per UE Data - %u UEs (%u frames)\0A\00", align 1
@.str.8 = private unnamed_addr constant [44 x i8] c"==========================================\0A\00", align 1
@.str.9 = private unnamed_addr constant [5 x i8] c"%s  \00", align 1
@ue_titles = internal global [14 x ptr] [ptr @.str.14, ptr @.str.15, ptr @.str.16, ptr @.str.17, ptr @.str.18, ptr @.str.19, ptr @.str.20, ptr @.str.21, ptr @.str.22, ptr @.str.23, ptr @.str.24, ptr @.str.25, ptr @.str.26, ptr @.str.27], align 16
@.str.10 = private unnamed_addr constant [2 x i8] c"\0A\00", align 1
@.str.11 = private unnamed_addr constant [63 x i8] c"%s  %5u %10u %9u %10f %8u %9u %10u %10u %9u %10f %8u %9u %10u\0A\00", align 1
@.str.12 = private unnamed_addr constant [4 x i8] c"LTE\00", align 1
@.str.13 = private unnamed_addr constant [4 x i8] c"NR \00", align 1

; Function Attrs: nounwind null_pointer_is_valid sspstrong uwtable
define internal float @calculate_bw(ptr noundef %0, ptr noundef %1, i32 noundef %2) #7 {
  %4 = alloca float, align 4
  %5 = alloca ptr, align 8
  %6 = alloca ptr, align 8
  %7 = alloca i32, align 4
  %8 = alloca float, align 4
  %9 = alloca i32, align 4
  store ptr %0, ptr %5, align 8
  store ptr %1, ptr %6, align 8
  store i32 %2, ptr %7, align 4
  %10 = load ptr, ptr %5, align 8
  %11 = load ptr, ptr %6, align 8
  %12 = call i32 @memcmp(ptr noundef %10, ptr noundef %11, i64 noundef 16) #14
  %13 = icmp ne i32 %12, 0
  br i1 %13, label %14, label %47

14:                                               ; preds = %3
  call void @llvm.lifetime.start.p0(i64 4, ptr %8) #13
  %15 = load ptr, ptr %6, align 8
  %16 = getelementptr inbounds nuw %struct.nstime_t, ptr %15, i32 0, i32 0
  %17 = load i64, ptr %16, align 8
  %18 = sitofp i64 %17 to float
  %19 = load ptr, ptr %5, align 8
  %20 = getelementptr inbounds nuw %struct.nstime_t, ptr %19, i32 0, i32 0
  %21 = load i64, ptr %20, align 8
  %22 = sitofp i64 %21 to float
  %23 = fsub float %18, %22
  %24 = load ptr, ptr %6, align 8
  %25 = getelementptr inbounds nuw %struct.nstime_t, ptr %24, i32 0, i32 1
  %26 = load i32, ptr %25, align 8
  %27 = sitofp i32 %26 to float
  %28 = load ptr, ptr %5, align 8
  %29 = getelementptr inbounds nuw %struct.nstime_t, ptr %28, i32 0, i32 1
  %30 = load i32, ptr %29, align 8
  %31 = sitofp i32 %30 to float
  %32 = fsub float %27, %31
  %33 = fdiv float %32, 1.000000e+06
  %34 = call float @llvm.fmuladd.f32(float %23, float 1.000000e+03, float %33)
  store float %34, ptr %8, align 4
  %35 = load float, ptr %8, align 4
  %36 = fpext float %35 to double
  %37 = fcmp olt double %36, 2.000000e+00
  br i1 %37, label %38, label %39

38:                                               ; preds = %14
  store float 0.000000e+00, ptr %4, align 4
  store i32 1, ptr %9, align 4
  br label %46

39:                                               ; preds = %14
  %40 = load i32, ptr %7, align 4
  %41 = mul i32 %40, 8
  %42 = uitofp i32 %41 to float
  %43 = load float, ptr %8, align 4
  %44 = fdiv float %42, %43
  %45 = fdiv float %44, 1.000000e+03
  store float %45, ptr %4, align 4
  store i32 1, ptr %9, align 4
  br label %46

46:                                               ; preds = %39, %38
  call void @llvm.lifetime.end.p0(i64 4, ptr %8) #13
  br label %48

47:                                               ; preds = %3
  store float 0.000000e+00, ptr %4, align 4
  br label %48

48:                                               ; preds = %47, %46
  %49 = load float, ptr %4, align 4
  ret float %49
}

; Function Attrs: null_pointer_is_valid sspstrong uwtable
define internal void @rlc_lte_stat_draw(ptr noundef %0) #0 {
  %2 = alloca ptr, align 8
  %3 = alloca i16, align 2
  %4 = alloca i32, align 4
  %5 = alloca ptr, align 8
  %6 = alloca ptr, align 8
  %7 = alloca ptr, align 8
  %8 = alloca float, align 4
  %9 = alloca float, align 4
  store ptr %0, ptr %2, align 8
  call void @llvm.lifetime.start.p0(i64 2, ptr %3) #13
  store i16 0, ptr %3, align 2
  call void @llvm.lifetime.start.p0(i64 4, ptr %4) #13
  call void @llvm.lifetime.start.p0(i64 8, ptr %5) #13
  %10 = load ptr, ptr %2, align 8
  store ptr %10, ptr %5, align 8
  call void @llvm.lifetime.start.p0(i64 8, ptr %6) #13
  %11 = load ptr, ptr %5, align 8
  %12 = getelementptr inbounds nuw %struct.rlc_lte_stat_t, ptr %11, i32 0, i32 0
  %13 = load ptr, ptr %12, align 8
  store ptr %13, ptr %6, align 8
  call void @llvm.lifetime.start.p0(i64 8, ptr %7) #13
  store ptr null, ptr %7, align 8
  %14 = call i32 (i32, ptr, ...) @__printf_chk(i32 noundef 2, ptr noundef @.str.4)
  %15 = call i32 (i32, ptr, ...) @__printf_chk(i32 noundef 2, ptr noundef @.str.5)
  %16 = load ptr, ptr %5, align 8
  %17 = getelementptr inbounds nuw %struct.rlc_lte_stat_t, ptr %16, i32 0, i32 2
  %18 = getelementptr inbounds nuw %struct.rlc_lte_common_stats, ptr %17, i32 0, i32 0
  %19 = load i32, ptr %18, align 4
  %20 = load ptr, ptr %5, align 8
  %21 = getelementptr inbounds nuw %struct.rlc_lte_stat_t, ptr %20, i32 0, i32 2
  %22 = getelementptr inbounds nuw %struct.rlc_lte_common_stats, ptr %21, i32 0, i32 1
  %23 = load i32, ptr %22, align 4
  %24 = load ptr, ptr %5, align 8
  %25 = getelementptr inbounds nuw %struct.rlc_lte_stat_t, ptr %24, i32 0, i32 2
  %26 = getelementptr inbounds nuw %struct.rlc_lte_common_stats, ptr %25, i32 0, i32 2
  %27 = load i32, ptr %26, align 4
  %28 = load ptr, ptr %5, align 8
  %29 = getelementptr inbounds nuw %struct.rlc_lte_stat_t, ptr %28, i32 0, i32 2
  %30 = getelementptr inbounds nuw %struct.rlc_lte_common_stats, ptr %29, i32 0, i32 3
  %31 = load i32, ptr %30, align 4
  %32 = call i32 (i32, ptr, ...) @__printf_chk(i32 noundef 2, ptr noundef @.str.6, i32 noundef %19, i32 noundef %23, i32 noundef %27, i32 noundef %31)
  %33 = load ptr, ptr %6, align 8
  store ptr %33, ptr %7, align 8
  br label %34

34:                                               ; preds = %38, %1
  %35 = load ptr, ptr %7, align 8
  %36 = icmp ne ptr %35, null
  br i1 %36, label %37, label %44

37:                                               ; preds = %34
  br label %38

38:                                               ; preds = %37
  %39 = load ptr, ptr %7, align 8
  %40 = getelementptr inbounds nuw %struct.rlc_lte_ep, ptr %39, i32 0, i32 0
  %41 = load ptr, ptr %40, align 8
  store ptr %41, ptr %7, align 8
  %42 = load i16, ptr %3, align 2
  %43 = add i16 %42, 1
  store i16 %43, ptr %3, align 2
  br label %34, !llvm.loop !10

44:                                               ; preds = %34
  %45 = load i16, ptr %3, align 2
  %46 = zext i16 %45 to i32
  %47 = load ptr, ptr %5, align 8
  %48 = getelementptr inbounds nuw %struct.rlc_lte_stat_t, ptr %47, i32 0, i32 1
  %49 = load i32, ptr %48, align 8
  %50 = call i32 (i32, ptr, ...) @__printf_chk(i32 noundef 2, ptr noundef @.str.7, i32 noundef %46, i32 noundef %49)
  %51 = call i32 (i32, ptr, ...) @__printf_chk(i32 noundef 2, ptr noundef @.str.8)
  store i32 0, ptr %4, align 4
  br label %52

52:                                               ; preds = %61, %44
  %53 = load i32, ptr %4, align 4
  %54 = icmp slt i32 %53, 14
  br i1 %54, label %55, label %64

55:                                               ; preds = %52
  %56 = load i32, ptr %4, align 4
  %57 = sext i32 %56 to i64
  %58 = getelementptr [14 x ptr], ptr @ue_titles, i64 0, i64 %57
  %59 = load ptr, ptr %58, align 8
  %60 = call i32 (i32, ptr, ...) @__printf_chk(i32 noundef 2, ptr noundef @.str.9, ptr noundef %59)
  br label %61

61:                                               ; preds = %55
  %62 = load i32, ptr %4, align 4
  %63 = add i32 %62, 1
  store i32 %63, ptr %4, align 4
  br label %52, !llvm.loop !11

64:                                               ; preds = %52
  %65 = call i32 (i32, ptr, ...) @__printf_chk(i32 noundef 2, ptr noundef @.str.10)
  %66 = load ptr, ptr %6, align 8
  store ptr %66, ptr %7, align 8
  br label %67

67:                                               ; preds = %150, %64
  %68 = load ptr, ptr %7, align 8
  %69 = icmp ne ptr %68, null
  br i1 %69, label %70, label %154

70:                                               ; preds = %67
  call void @llvm.lifetime.start.p0(i64 4, ptr %8) #13
  %71 = load ptr, ptr %7, align 8
  %72 = getelementptr inbounds nuw %struct.rlc_lte_ep, ptr %71, i32 0, i32 1
  %73 = getelementptr inbounds nuw %struct.rlc_lte_row_data, ptr %72, i32 0, i32 5
  %74 = load ptr, ptr %7, align 8
  %75 = getelementptr inbounds nuw %struct.rlc_lte_ep, ptr %74, i32 0, i32 1
  %76 = getelementptr inbounds nuw %struct.rlc_lte_row_data, ptr %75, i32 0, i32 6
  %77 = load ptr, ptr %7, align 8
  %78 = getelementptr inbounds nuw %struct.rlc_lte_ep, ptr %77, i32 0, i32 1
  %79 = getelementptr inbounds nuw %struct.rlc_lte_row_data, ptr %78, i32 0, i32 4
  %80 = load i32, ptr %79, align 4
  %81 = call float @calculate_bw(ptr noundef %73, ptr noundef %76, i32 noundef %80)
  store float %81, ptr %8, align 4
  call void @llvm.lifetime.start.p0(i64 4, ptr %9) #13
  %82 = load ptr, ptr %7, align 8
  %83 = getelementptr inbounds nuw %struct.rlc_lte_ep, ptr %82, i32 0, i32 1
  %84 = getelementptr inbounds nuw %struct.rlc_lte_row_data, ptr %83, i32 0, i32 12
  %85 = load ptr, ptr %7, align 8
  %86 = getelementptr inbounds nuw %struct.rlc_lte_ep, ptr %85, i32 0, i32 1
  %87 = getelementptr inbounds nuw %struct.rlc_lte_row_data, ptr %86, i32 0, i32 13
  %88 = load ptr, ptr %7, align 8
  %89 = getelementptr inbounds nuw %struct.rlc_lte_ep, ptr %88, i32 0, i32 1
  %90 = getelementptr inbounds nuw %struct.rlc_lte_row_data, ptr %89, i32 0, i32 11
  %91 = load i32, ptr %90, align 8
  %92 = call float @calculate_bw(ptr noundef %84, ptr noundef %87, i32 noundef %91)
  store float %92, ptr %9, align 4
  %93 = load ptr, ptr %7, align 8
  %94 = getelementptr inbounds nuw %struct.rlc_lte_ep, ptr %93, i32 0, i32 1
  %95 = getelementptr inbounds nuw %struct.rlc_lte_row_data, ptr %94, i32 0, i32 0
  %96 = load i8, ptr %95, align 8
  %97 = zext i8 %96 to i32
  %98 = icmp eq i32 %97, 0
  %99 = select i1 %98, ptr @.str.12, ptr @.str.13
  %100 = load ptr, ptr %7, align 8
  %101 = getelementptr inbounds nuw %struct.rlc_lte_ep, ptr %100, i32 0, i32 1
  %102 = getelementptr inbounds nuw %struct.rlc_lte_row_data, ptr %101, i32 0, i32 1
  %103 = load i16, ptr %102, align 2
  %104 = zext i16 %103 to i32
  %105 = load ptr, ptr %7, align 8
  %106 = getelementptr inbounds nuw %struct.rlc_lte_ep, ptr %105, i32 0, i32 1
  %107 = getelementptr inbounds nuw %struct.rlc_lte_row_data, ptr %106, i32 0, i32 3
  %108 = load i32, ptr %107, align 8
  %109 = load ptr, ptr %7, align 8
  %110 = getelementptr inbounds nuw %struct.rlc_lte_ep, ptr %109, i32 0, i32 1
  %111 = getelementptr inbounds nuw %struct.rlc_lte_row_data, ptr %110, i32 0, i32 4
  %112 = load i32, ptr %111, align 4
  %113 = load float, ptr %8, align 4
  %114 = fpext float %113 to double
  %115 = load ptr, ptr %7, align 8
  %116 = getelementptr inbounds nuw %struct.rlc_lte_ep, ptr %115, i32 0, i32 1
  %117 = getelementptr inbounds nuw %struct.rlc_lte_row_data, ptr %116, i32 0, i32 7
  %118 = load i32, ptr %117, align 8
  %119 = load ptr, ptr %7, align 8
  %120 = getelementptr inbounds nuw %struct.rlc_lte_ep, ptr %119, i32 0, i32 1
  %121 = getelementptr inbounds nuw %struct.rlc_lte_row_data, ptr %120, i32 0, i32 8
  %122 = load i32, ptr %121, align 4
  %123 = load ptr, ptr %7, align 8
  %124 = getelementptr inbounds nuw %struct.rlc_lte_ep, ptr %123, i32 0, i32 1
  %125 = getelementptr inbounds nuw %struct.rlc_lte_row_data, ptr %124, i32 0, i32 9
  %126 = load i32, ptr %125, align 8
  %127 = load ptr, ptr %7, align 8
  %128 = getelementptr inbounds nuw %struct.rlc_lte_ep, ptr %127, i32 0, i32 1
  %129 = getelementptr inbounds nuw %struct.rlc_lte_row_data, ptr %128, i32 0, i32 10
  %130 = load i32, ptr %129, align 4
  %131 = load ptr, ptr %7, align 8
  %132 = getelementptr inbounds nuw %struct.rlc_lte_ep, ptr %131, i32 0, i32 1
  %133 = getelementptr inbounds nuw %struct.rlc_lte_row_data, ptr %132, i32 0, i32 11
  %134 = load i32, ptr %133, align 8
  %135 = load float, ptr %9, align 4
  %136 = fpext float %135 to double
  %137 = load ptr, ptr %7, align 8
  %138 = getelementptr inbounds nuw %struct.rlc_lte_ep, ptr %137, i32 0, i32 1
  %139 = getelementptr inbounds nuw %struct.rlc_lte_row_data, ptr %138, i32 0, i32 14
  %140 = load i32, ptr %139, align 8
  %141 = load ptr, ptr %7, align 8
  %142 = getelementptr inbounds nuw %struct.rlc_lte_ep, ptr %141, i32 0, i32 1
  %143 = getelementptr inbounds nuw %struct.rlc_lte_row_data, ptr %142, i32 0, i32 15
  %144 = load i32, ptr %143, align 4
  %145 = load ptr, ptr %7, align 8
  %146 = getelementptr inbounds nuw %struct.rlc_lte_ep, ptr %145, i32 0, i32 1
  %147 = getelementptr inbounds nuw %struct.rlc_lte_row_data, ptr %146, i32 0, i32 16
  %148 = load i32, ptr %147, align 8
  %149 = call i32 (i32, ptr, ...) @__printf_chk(i32 noundef 2, ptr noundef @.str.11, ptr noundef %99, i32 noundef %104, i32 noundef %108, i32 noundef %112, double noundef %114, i32 noundef %118, i32 noundef %122, i32 noundef %126, i32 noundef %130, i32 noundef %134, double noundef %136, i32 noundef %140, i32 noundef %144, i32 noundef %148)
  call void @llvm.lifetime.end.p0(i64 4, ptr %9) #13
  call void @llvm.lifetime.end.p0(i64 4, ptr %8) #13
  br label %150

150:                                              ; preds = %70
  %151 = load ptr, ptr %7, align 8
  %152 = getelementptr inbounds nuw %struct.rlc_lte_ep, ptr %151, i32 0, i32 0
  %153 = load ptr, ptr %152, align 8
  store ptr %153, ptr %7, align 8
  br label %67, !llvm.loop !12

154:                                              ; preds = %67
  call void @llvm.lifetime.end.p0(i64 8, ptr %7) #13
  call void @llvm.lifetime.end.p0(i64 8, ptr %6) #13
  call void @llvm.lifetime.end.p0(i64 8, ptr %5) #13
  call void @llvm.lifetime.end.p0(i64 4, ptr %4) #13
  call void @llvm.lifetime.end.p0(i64 2, ptr %3) #13
  ret void
}