; Function Attrs: null_pointer_is_valid sspstrong uwtable
define internal void @rlc_lte_stat_draw(ptr noundef readonly captures(none) %0) #0 {
  %2 = load ptr, ptr %0, align 8
  %3 = tail call i32 (i32, ptr, ...) @__printf_chk(i32 noundef 2, ptr noundef nonnull @.str.4)
  %4 = tail call i32 (i32, ptr, ...) @__printf_chk(i32 noundef 2, ptr noundef nonnull @.str.5)
  %5 = getelementptr inbounds nuw i8, ptr %0, i64 12
  %6 = load i32, ptr %5, align 4
  %7 = getelementptr inbounds nuw i8, ptr %0, i64 16
  %8 = load i32, ptr %7, align 4
  %9 = getelementptr inbounds nuw i8, ptr %0, i64 20
  %10 = load i32, ptr %9, align 4
  %11 = getelementptr inbounds nuw i8, ptr %0, i64 24
  %12 = load i32, ptr %11, align 4
  %13 = tail call i32 (i32, ptr, ...) @__printf_chk(i32 noundef 2, ptr noundef nonnull @.str.6, i32 noundef %6, i32 noundef %8, i32 noundef %10, i32 noundef %12)
  %.not45 = icmp eq ptr %2, null
  br i1 %.not45, label %._crit_edge, label %.lr.ph

.lr.ph:                                           ; preds = %1, %.lr.ph
  %.047 = phi i16 [ %15, %.lr.ph ], [ 0, %1 ]
  %.03846 = phi ptr [ %14, %.lr.ph ], [ %2, %1 ]
  %14 = load ptr, ptr %.03846, align 8
  %15 = add i16 %.047, 1
  %.not = icmp eq ptr %14, null
  br i1 %.not, label %._crit_edge.loopexit, label %.lr.ph, !llvm.loop !10

._crit_edge.loopexit:                             ; preds = %.lr.ph
  %16 = zext i16 %15 to i32
  br label %._crit_edge

._crit_edge:                                      ; preds = %._crit_edge.loopexit, %1
  %.0.lcssa = phi i32 [ 0, %1 ], [ %16, %._crit_edge.loopexit ]
  %17 = getelementptr inbounds nuw i8, ptr %0, i64 8
  %18 = load i32, ptr %17, align 8
  %19 = tail call i32 (i32, ptr, ...) @__printf_chk(i32 noundef 2, ptr noundef nonnull @.str.7, i32 noundef %.0.lcssa, i32 noundef %18)
  %20 = tail call i32 (i32, ptr, ...) @__printf_chk(i32 noundef 2, ptr noundef nonnull @.str.8)
  br label %21

21:                                               ; preds = %._crit_edge, %21
  %indvars.iv = phi i64 [ 0, %._crit_edge ], [ %indvars.iv.next, %21 ]
  %22 = getelementptr [14 x ptr], ptr @ue_titles, i64 0, i64 %indvars.iv
  %23 = load ptr, ptr %22, align 8
  %24 = tail call i32 (i32, ptr, ...) @__printf_chk(i32 noundef 2, ptr noundef nonnull @.str.9, ptr noundef %23)
  %indvars.iv.next = add nuw nsw i64 %indvars.iv, 1
  %exitcond.not = icmp eq i64 %indvars.iv.next, 14
  br i1 %exitcond.not, label %25, label %21, !llvm.loop !11

25:                                               ; preds = %21
  %26 = tail call i32 (i32, ptr, ...) @__printf_chk(i32 noundef 2, ptr noundef nonnull @.str.10)
  br i1 %.not45, label %._crit_edge53, label %.lr.ph52

.lr.ph52:                                         ; preds = %25, %calculate_bw.exit44
  %.150 = phi ptr [ %101, %calculate_bw.exit44 ], [ %2, %25 ]
  %27 = getelementptr inbounds nuw i8, ptr %.150, i64 8
  %28 = getelementptr inbounds nuw i8, ptr %.150, i64 24
  %29 = getelementptr inbounds nuw i8, ptr %.150, i64 40
  %30 = getelementptr inbounds nuw i8, ptr %.150, i64 20
  %31 = load i32, ptr %30, align 4
  %bcmp.i = tail call i32 @bcmp(ptr noundef nonnull readonly dereferenceable(16) %28, ptr noundef nonnull readonly dereferenceable(16) %29, i64 16)
  %.not.i = icmp eq i32 %bcmp.i, 0
  br i1 %.not.i, label %calculate_bw.exit, label %32

32:                                               ; preds = %.lr.ph52
  %33 = load i64, ptr %29, align 8
  %34 = sitofp i64 %33 to float
  %35 = load i64, ptr %28, align 8
  %36 = sitofp i64 %35 to float
  %37 = fsub float %34, %36
  %38 = getelementptr inbounds nuw i8, ptr %.150, i64 48
  %39 = load i32, ptr %38, align 8
  %40 = sitofp i32 %39 to float
  %41 = getelementptr inbounds nuw i8, ptr %.150, i64 32
  %42 = load i32, ptr %41, align 8
  %43 = sitofp i32 %42 to float
  %44 = fsub float %40, %43
  %45 = fdiv float %44, 1.000000e+06
  %46 = tail call float @llvm.fmuladd.f32(float %37, float 1.000000e+03, float %45)
  %47 = fcmp olt float %46, 2.000000e+00
  %48 = shl i32 %31, 3
  %49 = uitofp i32 %48 to float
  %50 = fdiv float %49, %46
  %51 = fdiv float %50, 1.000000e+03
  %.0.i = select i1 %47, float 0.000000e+00, float %51
  %52 = fpext float %.0.i to double
  br label %calculate_bw.exit

calculate_bw.exit:                                ; preds = %.lr.ph52, %32
  %.1.i = phi double [ %52, %32 ], [ 0.000000e+00, %.lr.ph52 ]
  %53 = getelementptr inbounds nuw i8, ptr %.150, i64 80
  %54 = getelementptr inbounds nuw i8, ptr %.150, i64 96
  %55 = getelementptr inbounds nuw i8, ptr %.150, i64 72
  %56 = load i32, ptr %55, align 8
  %bcmp.i40 = tail call i32 @bcmp(ptr noundef nonnull readonly dereferenceable(16) %53, ptr noundef nonnull readonly dereferenceable(16) %54, i64 16)
  %.not.i41 = icmp eq i32 %bcmp.i40, 0
  br i1 %.not.i41, label %calculate_bw.exit44, label %57

57:                                               ; preds = %calculate_bw.exit
  %58 = load i64, ptr %54, align 8
  %59 = sitofp i64 %58 to float
  %60 = load i64, ptr %53, align 8
  %61 = sitofp i64 %60 to float
  %62 = fsub float %59, %61
  %63 = getelementptr inbounds nuw i8, ptr %.150, i64 104
  %64 = load i32, ptr %63, align 8
  %65 = sitofp i32 %64 to float
  %66 = getelementptr inbounds nuw i8, ptr %.150, i64 88
  %67 = load i32, ptr %66, align 8
  %68 = sitofp i32 %67 to float
  %69 = fsub float %65, %68
  %70 = fdiv float %69, 1.000000e+06
  %71 = tail call float @llvm.fmuladd.f32(float %62, float 1.000000e+03, float %70)
  %72 = fcmp olt float %71, 2.000000e+00
  %73 = shl i32 %56, 3
  %74 = uitofp i32 %73 to float
  %75 = fdiv float %74, %71
  %76 = fdiv float %75, 1.000000e+03
  %.0.i42 = select i1 %72, float 0.000000e+00, float %76
  %77 = fpext float %.0.i42 to double
  br label %calculate_bw.exit44

calculate_bw.exit44:                              ; preds = %calculate_bw.exit, %57
  %.1.i43 = phi double [ %77, %57 ], [ 0.000000e+00, %calculate_bw.exit ]
  %78 = load i8, ptr %27, align 8
  %79 = icmp eq i8 %78, 0
  %80 = select i1 %79, ptr @.str.12, ptr @.str.13
  %81 = getelementptr inbounds nuw i8, ptr %.150, i64 10
  %82 = load i16, ptr %81, align 2
  %83 = zext i16 %82 to i32
  %84 = getelementptr inbounds nuw i8, ptr %.150, i64 16
  %85 = load i32, ptr %84, align 8
  %86 = getelementptr inbounds nuw i8, ptr %.150, i64 56
  %87 = load i32, ptr %86, align 8
  %88 = getelementptr inbounds nuw i8, ptr %.150, i64 60
  %89 = load i32, ptr %88, align 4
  %90 = getelementptr inbounds nuw i8, ptr %.150, i64 64
  %91 = load i32, ptr %90, align 8
  %92 = getelementptr inbounds nuw i8, ptr %.150, i64 68
  %93 = load i32, ptr %92, align 4
  %94 = getelementptr inbounds nuw i8, ptr %.150, i64 112
  %95 = load i32, ptr %94, align 8
  %96 = getelementptr inbounds nuw i8, ptr %.150, i64 116
  %97 = load i32, ptr %96, align 4
  %98 = getelementptr inbounds nuw i8, ptr %.150, i64 120
  %99 = load i32, ptr %98, align 8
  %100 = tail call i32 (i32, ptr, ...) @__printf_chk(i32 noundef 2, ptr noundef nonnull @.str.11, ptr noundef nonnull %80, i32 noundef %83, i32 noundef %85, i32 noundef %31, double noundef %.1.i, i32 noundef %87, i32 noundef %89, i32 noundef %91, i32 noundef %93, i32 noundef %56, double noundef %.1.i43, i32 noundef %95, i32 noundef %97, i32 noundef %99)
  %101 = load ptr, ptr %.150, align 8
  %.not39 = icmp eq ptr %101, null
  br i1 %.not39, label %._crit_edge53, label %.lr.ph52, !llvm.loop !12

._crit_edge53:                                    ; preds = %calculate_bw.exit44, %25
  ret void
}